target datalayout = "e-m:e-p270:32:32-p271:32:32-p272:64:64-i64:64-i128:128-f80:128-n8:16:32:64-S128"
target triple = "x86_64-pc-linux-gnu"

%struct.Gpr_t = type { ptr, ptr, ptr, ptr, ptr, ptr, ptr, ptr, ptr, ptr, ptr, i32, ptr, ptr, ptr, i32, i32, ptr, i32, ptr, i64, [1 x %struct.__jmp_buf_tag] }
%struct.__jmp_buf_tag = type { [8 x i64], i32, %struct.__sigset_t }
%struct.__sigset_t = type { [16 x i64] }
%struct.gvprbinding = type { ptr, ptr }

@stderr = external global ptr, align 8
@.str.5 = private unnamed_addr constant [58 x i8] c"integer overflow when trying to allocate %zu * %zu bytes\0A\00", align 1
@.str.6 = private unnamed_addr constant [49 x i8] c"out of memory when trying to allocate %zu bytes\0A\00", align 1

; Function Attrs: inlinehint nounwind uwtable
define internal ptr @gv_calloc(i64 noundef %0, i64 noundef %1) #5 {
  %3 = alloca i64, align 8
  %4 = alloca i64, align 8
  %5 = alloca ptr, align 8
  store i64 %0, ptr %3, align 8, !tbaa !43
  store i64 %1, ptr %4, align 8, !tbaa !43
  %6 = load i64, ptr %3, align 8, !tbaa !43
  %7 = icmp ugt i64 %6, 0
  br i1 %7, label %8, label %18

8:                                                ; preds = %2
  %9 = load i64, ptr %3, align 8, !tbaa !43
  %10 = udiv i64 -1, %9
  %11 = load i64, ptr %4, align 8, !tbaa !43
  %12 = icmp ult i64 %10, %11
  br i1 %12, label %13, label %18

13:                                               ; preds = %8
  %14 = load ptr, ptr @stderr, align 8, !tbaa !50
  %15 = load i64, ptr %3, align 8, !tbaa !43
  %16 = load i64, ptr %4, align 8, !tbaa !43
  %17 = call i32 (ptr, ptr, ...) @fprintf(ptr noundef %14, ptr noundef @.str.5, i64 noundef %15, i64 noundef %16) #10
  call void @graphviz_exit(i32 noundef 1) #13
  unreachable

18:                                               ; preds = %8, %2
  call void @llvm.lifetime.start.p0(i64 8, ptr %5) #10
  %19 = load i64, ptr %3, align 8, !tbaa !43
  %20 = load i64, ptr %4, align 8, !tbaa !43
  %21 = call noalias ptr @calloc(i64 noundef %19, i64 noundef %20) #11
  store ptr %21, ptr %5, align 8, !tbaa !7
  %22 = load i64, ptr %3, align 8, !tbaa !43
  %23 = icmp ugt i64 %22, 0
  br i1 %23, label %24, label %36

24:                                               ; preds = %18
  %25 = load i64, ptr %4, align 8, !tbaa !43
  %26 = icmp ugt i64 %25, 0
  br i1 %26, label %27, label %36

27:                                               ; preds = %24
  %28 = load ptr, ptr %5, align 8, !tbaa !7
  %29 = icmp eq ptr %28, null
  br i1 %29, label %30, label %36

30:                                               ; preds = %27
  %31 = load ptr, ptr @stderr, align 8, !tbaa !50
  %32 = load i64, ptr %3, align 8, !tbaa !43
  %33 = load i64, ptr %4, align 8, !tbaa !43
  %34 = mul i64 %32, %33
  %35 = call i32 (ptr, ptr, ...) @fprintf(ptr noundef %31, ptr noundef @.str.6, i64 noundef %34) #10
  call void @graphviz_exit(i32 noundef 1) #13
  unreachable

36:                                               ; preds = %27, %24, %18
  %37 = load ptr, ptr %5, align 8, !tbaa !7
  call void @llvm.lifetime.end.p0(i64 8, ptr %5) #10
  ret ptr %37
}

; Function Attrs: nounwind uwtable
define void @addBindings(ptr noundef %0, ptr noundef %1) #0 {
  %3 = alloca ptr, align 8
  %4 = alloca ptr, align 8
  %5 = alloca i64, align 8
  %6 = alloca ptr, align 8
  %7 = alloca ptr, align 8
  %8 = alloca ptr, align 8
  %9 = alloca i32, align 4
  store ptr %0, ptr %3, align 8, !tbaa !7
  store ptr %1, ptr %4, align 8, !tbaa !7
  call void @llvm.lifetime.start.p0(i64 8, ptr %5) #10
  store i64 0, ptr %5, align 8, !tbaa !43
  call void @llvm.lifetime.start.p0(i64 8, ptr %6) #10
  %10 = load ptr, ptr %4, align 8, !tbaa !7
  store ptr %10, ptr %6, align 8, !tbaa !7
  call void @llvm.lifetime.start.p0(i64 8, ptr %7) #10
  call void @llvm.lifetime.start.p0(i64 8, ptr %8) #10
  br label %11

11:                                               ; preds = %29, %2
  %12 = load ptr, ptr %6, align 8, !tbaa !7
  %13 = icmp ne ptr %12, null
  br i1 %13, label %14, label %19

14:                                               ; preds = %11
  %15 = load ptr, ptr %6, align 8, !tbaa !7
  %16 = getelementptr inbounds nuw %struct.gvprbinding, ptr %15, i32 0, i32 0
  %17 = load ptr, ptr %16, align 8, !tbaa !40
  %18 = icmp ne ptr %17, null
  br label %19

19:                                               ; preds = %14, %11
  %20 = phi i1 [ false, %11 ], [ %18, %14 ]
  br i1 %20, label %21, label %32

21:                                               ; preds = %19
  %22 = load ptr, ptr %6, align 8, !tbaa !7
  %23 = getelementptr inbounds nuw %struct.gvprbinding, ptr %22, i32 0, i32 1
  %24 = load ptr, ptr %23, align 8, !tbaa !46
  %25 = icmp ne ptr %24, null
  br i1 %25, label %26, label %29

26:                                               ; preds = %21
  %27 = load i64, ptr %5, align 8, !tbaa !43
  %28 = add i64 %27, 1
  store i64 %28, ptr %5, align 8, !tbaa !43
  br label %29

29:                                               ; preds = %26, %21
  %30 = load ptr, ptr %6, align 8, !tbaa !7
  %31 = getelementptr inbounds nuw %struct.gvprbinding, ptr %30, i32 1
  store ptr %31, ptr %6, align 8, !tbaa !7
  br label %11, !llvm.loop !47

32:                                               ; preds = %19
  %33 = load i64, ptr %5, align 8, !tbaa !43
  %34 = icmp eq i64 %33, 0
  br i1 %34, label %35, label %36

35:                                               ; preds = %32
  store i32 1, ptr %9, align 4
  br label %67

36:                                               ; preds = %32
  %37 = load i64, ptr %5, align 8, !tbaa !43
  %38 = call ptr @gv_calloc(i64 noundef %37, i64 noundef 16)
  store ptr %38, ptr %7, align 8, !tbaa !7
  store ptr %38, ptr %8, align 8, !tbaa !7
  %39 = load ptr, ptr %4, align 8, !tbaa !7
  store ptr %39, ptr %6, align 8, !tbaa !7
  br label %40

40:                                               ; preds = %55, %36
  %41 = load ptr, ptr %6, align 8, !tbaa !7
  %42 = getelementptr inbounds nuw %struct.gvprbinding, ptr %41, i32 0, i32 0
  %43 = load ptr, ptr %42, align 8, !tbaa !40
  %44 = icmp ne ptr %43, null
  br i1 %44, label %45, label %58

45:                                               ; preds = %40
  %46 = load ptr, ptr %6, align 8, !tbaa !7
  %47 = getelementptr inbounds nuw %struct.gvprbinding, ptr %46, i32 0, i32 1
  %48 = load ptr, ptr %47, align 8, !tbaa !46
  %49 = icmp ne ptr %48, null
  br i1 %49, label %50, label %55

50:                                               ; preds = %45
  %51 = load ptr, ptr %8, align 8, !tbaa !7
  %52 = load ptr, ptr %6, align 8, !tbaa !7
  call void @llvm.memcpy.p0.p0.i64(ptr align 8 %51, ptr align 8 %52, i64 16, i1 false), !tbaa.struct !48
  %53 = load ptr, ptr %8, align 8, !tbaa !7
  %54 = getelementptr inbounds nuw %struct.gvprbinding, ptr %53, i32 1
  store ptr %54, ptr %8, align 8, !tbaa !7
  br label %55

55:                                               ; preds = %50, %45
  %56 = load ptr, ptr %6, align 8, !tbaa !7
  %57 = getelementptr inbounds nuw %struct.gvprbinding, ptr %56, i32 1
  store ptr %57, ptr %6, align 8, !tbaa !7
  br label %40, !llvm.loop !49

58:                                               ; preds = %40
  %59 = load ptr, ptr %7, align 8, !tbaa !7
  %60 = load i64, ptr %5, align 8, !tbaa !43
  call void @qsort(ptr noundef %59, i64 noundef %60, i64 noundef 16, ptr noundef @bindingcmpf)
  %61 = load ptr, ptr %7, align 8, !tbaa !7
  %62 = load ptr, ptr %3, align 8, !tbaa !7
  %63 = getelementptr inbounds nuw %struct.Gpr_t, ptr %62, i32 0, i32 19
  store ptr %61, ptr %63, align 8, !tbaa !39
  %64 = load i64, ptr %5, align 8, !tbaa !43
  %65 = load ptr, ptr %3, align 8, !tbaa !7
  %66 = getelementptr inbounds nuw %struct.Gpr_t, ptr %65, i32 0, i32 20
  store i64 %64, ptr %66, align 8, !tbaa !42
  store i32 0, ptr %9, align 4
  br label %67

67:                                               ; preds = %58, %35
  call void @llvm.lifetime.end.p0(i64 8, ptr %8) #10
  call void @llvm.lifetime.end.p0(i64 8, ptr %7) #10
  call void @llvm.lifetime.end.p0(i64 8, ptr %6) #10
  call void @llvm.lifetime.end.p0(i64 8, ptr %5) #10
  %68 = load i32, ptr %9, align 4
  switch i32 %68, label %70 [
    i32 0, label %69
    i32 1, label %69
  ]

69:                                               ; preds = %67, %67
  ret void

70:                                               ; preds = %67
  unreachable
}