; Function Attrs: nofree nounwind uwtable
define void @addBindings(ptr noundef writeonly captures(none) %0, ptr noundef readonly captures(address_is_null) %1) local_unnamed_addr #7 {
  %.not28 = icmp eq ptr %1, null
  br i1 %.not28, label %.critedge.thread, label %.lr.ph.preheader

.lr.ph.preheader:                                 ; preds = %2
  %3 = load ptr, ptr %1, align 8, !tbaa !33
  %.not2438 = icmp eq ptr %3, null
  br i1 %.not2438, label %.critedge, label %.lr.ph

.lr.ph:                                           ; preds = %.lr.ph.preheader, %.lr.ph
  %.0222940 = phi ptr [ %7, %.lr.ph ], [ %1, %.lr.ph.preheader ]
  %.0203039 = phi i64 [ %spec.select, %.lr.ph ], [ 0, %.lr.ph.preheader ]
  %4 = getelementptr inbounds nuw i8, ptr %.0222940, i64 8
  %5 = load ptr, ptr %4, align 8, !tbaa !37
  %.not27 = icmp ne ptr %5, null
  %6 = zext i1 %.not27 to i64
  %spec.select = add i64 %.0203039, %6
  %7 = getelementptr inbounds nuw i8, ptr %.0222940, i64 16
  %8 = load ptr, ptr %7, align 8, !tbaa !33
  %.not24 = icmp eq ptr %8, null
  br i1 %.not24, label %.critedge, label %.lr.ph

.critedge:                                        ; preds = %.lr.ph, %.lr.ph.preheader
  %.02030.lcssa = phi i64 [ 0, %.lr.ph.preheader ], [ %spec.select, %.lr.ph ]
  %9 = icmp eq i64 %.02030.lcssa, 0
  br i1 %9, label %.critedge.thread, label %10

10:                                               ; preds = %.critedge
  %mul.ov.i = icmp ugt i64 %.02030.lcssa, 1152921504606846975
  br i1 %mul.ov.i, label %11, label %14

11:                                               ; preds = %10
  %12 = load ptr, ptr @stderr, align 8, !tbaa !38
  %13 = tail call i32 (ptr, ptr, ...) @fprintf(ptr noundef %12, ptr noundef nonnull @.str.5, i64 noundef range(i64 1, 0) %.02030.lcssa, i64 noundef 16) #19
  tail call fastcc void @graphviz_exit() #20
  unreachable

14:                                               ; preds = %10
  %15 = tail call noalias ptr @calloc(i64 noundef range(i64 1, 0) %.02030.lcssa, i64 noundef 16) #17
  %16 = icmp eq ptr %15, null
  br i1 %16, label %18, label %gv_calloc.exit.preheader

gv_calloc.exit.preheader:                         ; preds = %14
  %17 = load ptr, ptr %1, align 8, !tbaa !33
  %.not2533 = icmp eq ptr %17, null
  br i1 %.not2533, label %gv_calloc.exit._crit_edge, label %.lr.ph36

18:                                               ; preds = %14
  %19 = load ptr, ptr @stderr, align 8, !tbaa !38
  %20 = shl nuw i64 %.02030.lcssa, 4
  %21 = tail call i32 (ptr, ptr, ...) @fprintf(ptr noundef %19, ptr noundef nonnull @.str.6, i64 noundef %20) #19
  tail call fastcc void @graphviz_exit() #20
  unreachable

.lr.ph36:                                         ; preds = %gv_calloc.exit.preheader, %gv_calloc.exit
  %.035 = phi ptr [ %.1, %gv_calloc.exit ], [ %15, %gv_calloc.exit.preheader ]
  %.12334 = phi ptr [ %26, %gv_calloc.exit ], [ %1, %gv_calloc.exit.preheader ]
  %22 = getelementptr inbounds nuw i8, ptr %.12334, i64 8
  %23 = load ptr, ptr %22, align 8, !tbaa !37
  %.not26 = icmp eq ptr %23, null
  br i1 %.not26, label %gv_calloc.exit, label %24

24:                                               ; preds = %.lr.ph36
  tail call void @llvm.memcpy.p0.p0.i64(ptr noundef nonnull align 8 dereferenceable(16) %.035, ptr noundef nonnull align 8 dereferenceable(16) %.12334, i64 16, i1 false), !tbaa.struct !39
  %25 = getelementptr inbounds nuw i8, ptr %.035, i64 16
  br label %gv_calloc.exit

gv_calloc.exit:                                   ; preds = %24, %.lr.ph36
  %.1 = phi ptr [ %25, %24 ], [ %.035, %.lr.ph36 ]
  %26 = getelementptr inbounds nuw i8, ptr %.12334, i64 16
  %27 = load ptr, ptr %26, align 8, !tbaa !33
  %.not25 = icmp eq ptr %27, null
  br i1 %.not25, label %gv_calloc.exit._crit_edge, label %.lr.ph36, !llvm.loop !42

gv_calloc.exit._crit_edge:                        ; preds = %gv_calloc.exit, %gv_calloc.exit.preheader
  tail call void @qsort(ptr noundef nonnull %15, i64 noundef %.02030.lcssa, i64 noundef 16, ptr noundef nonnull @bindingcmpf) #16
  %28 = getelementptr inbounds nuw i8, ptr %0, i64 144
  store ptr %15, ptr %28, align 8, !tbaa !31
  %29 = getelementptr inbounds nuw i8, ptr %0, i64 152
  store i64 %.02030.lcssa, ptr %29, align 8, !tbaa !32
  br label %.critedge.thread

.critedge.thread:                                 ; preds = %2, %.critedge, %gv_calloc.exit._crit_edge
  ret void
}